target datalayout = "e-m:e-p270:32:32-p271:32:32-p272:64:64-i64:64-i128:128-f80:128-n8:16:32:64-S128"
target triple = "x86_64-pc-linux-gnu"

%"class.pxrInternal_v0_24__pxrReserved__::SdfPredicateFunctionResult" = type { i8, i32 }
%class.anon = type { ptr }
%"class.pxrInternal_v0_24__pxrReserved__::SdfPath" = type { %"struct.pxrInternal_v0_24__pxrReserved__::Sdf_PathNodeHandleImpl", %"struct.pxrInternal_v0_24__pxrReserved__::Sdf_PathNodeHandleImpl.28" }
%"struct.pxrInternal_v0_24__pxrReserved__::Sdf_PathNodeHandleImpl" = type { %"struct.pxrInternal_v0_24__pxrReserved__::Sdf_Pool<pxrInternal_v0_24__pxrReserved__::Sdf_PathPrimTag, 24, 8>::Handle" }
%"struct.pxrInternal_v0_24__pxrReserved__::Sdf_Pool<pxrInternal_v0_24__pxrReserved__::Sdf_PathPrimTag, 24, 8>::Handle" = type { i32 }
%"struct.pxrInternal_v0_24__pxrReserved__::Sdf_PathNodeHandleImpl.28" = type { %"struct.pxrInternal_v0_24__pxrReserved__::Sdf_Pool<pxrInternal_v0_24__pxrReserved__::Sdf_PathPropTag, 24, 8>::Handle" }
%"struct.pxrInternal_v0_24__pxrReserved__::Sdf_Pool<pxrInternal_v0_24__pxrReserved__::Sdf_PathPropTag, 24, 8>::Handle" = type { i32 }
%"class.pxrInternal_v0_24__pxrReserved__::SdfPathExpressionEval<const pxrInternal_v0_24__pxrReserved__::HdSceneIndexPrim &>::_PatternImpl" = type { %"class.pxrInternal_v0_24__pxrReserved__::Sdf_PathExpressionEvalBase::_PatternImplBase.base", %"class.std::vector.77" }
%"class.pxrInternal_v0_24__pxrReserved__::Sdf_PathExpressionEvalBase::_PatternImplBase.base" = type <{ %"class.pxrInternal_v0_24__pxrReserved__::SdfPath", %"class.std::vector.57", %"class.std::vector.62", %"class.std::vector.67", %"class.std::vector.72", i8, i8, i8 }>
%"class.std::vector.57" = type { %"struct.std::_Vector_base.58" }
%"struct.std::_Vector_base.58" = type { %"struct.std::_Vector_base<pxrInternal_v0_24__pxrReserved__::Sdf_PathExpressionEvalBase::_PatternImplBase::_Component, std::allocator<pxrInternal_v0_24__pxrReserved__::Sdf_PathExpressionEvalBase::_PatternImplBase::_Component>>::_Vector_impl" }
%"struct.std::_Vector_base<pxrInternal_v0_24__pxrReserved__::Sdf_PathExpressionEvalBase::_PatternImplBase::_Component, std::allocator<pxrInternal_v0_24__pxrReserved__::Sdf_PathExpressionEvalBase::_PatternImplBase::_Component>>::_Vector_impl" = type { %"struct.std::_Vector_base<pxrInternal_v0_24__pxrReserved__::Sdf_PathExpressionEvalBase::_PatternImplBase::_Component, std::allocator<pxrInternal_v0_24__pxrReserved__::Sdf_PathExpressionEvalBase::_PatternImplBase::_Component>>::_Vector_impl_data" }
%"struct.std::_Vector_base<pxrInternal_v0_24__pxrReserved__::Sdf_PathExpressionEvalBase::_PatternImplBase::_Component, std::allocator<pxrInternal_v0_24__pxrReserved__::Sdf_PathExpressionEvalBase::_PatternImplBase::_Component>>::_Vector_impl_data" = type { ptr, ptr, ptr }
%"class.std::vector.62" = type { %"struct.std::_Vector_base.63" }
%"struct.std::_Vector_base.63" = type { %"struct.std::_Vector_base<pxrInternal_v0_24__pxrReserved__::Sdf_PathExpressionEvalBase::_PatternImplBase::_Segment, std::allocator<pxrInternal_v0_24__pxrReserved__::Sdf_PathExpressionEvalBase::_PatternImplBase::_Segment>>::_Vector_impl" }
%"struct.std::_Vector_base<pxrInternal_v0_24__pxrReserved__::Sdf_PathExpressionEvalBase::_PatternImplBase::_Segment, std::allocator<pxrInternal_v0_24__pxrReserved__::Sdf_PathExpressionEvalBase::_PatternImplBase::_Segment>>::_Vector_impl" = type { %"struct.std::_Vector_base<pxrInternal_v0_24__pxrReserved__::Sdf_PathExpressionEvalBase::_PatternImplBase::_Segment, std::allocator<pxrInternal_v0_24__pxrReserved__::Sdf_PathExpressionEvalBase::_PatternImplBase::_Segment>>::_Vector_impl_data" }
%"struct.std::_Vector_base<pxrInternal_v0_24__pxrReserved__::Sdf_PathExpressionEvalBase::_PatternImplBase::_Segment, std::allocator<pxrInternal_v0_24__pxrReserved__::Sdf_PathExpressionEvalBase::_PatternImplBase::_Segment>>::_Vector_impl_data" = type { ptr, ptr, ptr }
%"class.std::vector.67" = type { %"struct.std::_Vector_base.68" }
%"struct.std::_Vector_base.68" = type { %"struct.std::_Vector_base<std::__cxx11::basic_string<char>, std::allocator<std::__cxx11::basic_string<char>>>::_Vector_impl" }
%"struct.std::_Vector_base<std::__cxx11::basic_string<char>, std::allocator<std::__cxx11::basic_string<char>>>::_Vector_impl" = type { %"struct.std::_Vector_base<std::__cxx11::basic_string<char>, std::allocator<std::__cxx11::basic_string<char>>>::_Vector_impl_data" }
%"struct.std::_Vector_base<std::__cxx11::basic_string<char>, std::allocator<std::__cxx11::basic_string<char>>>::_Vector_impl_data" = type { ptr, ptr, ptr }
%"class.std::vector.72" = type { %"struct.std::_Vector_base.73" }
%"struct.std::_Vector_base.73" = type { %"struct.std::_Vector_base<pxrInternal_v0_24__pxrReserved__::ArchRegex, std::allocator<pxrInternal_v0_24__pxrReserved__::ArchRegex>>::_Vector_impl" }
%"struct.std::_Vector_base<pxrInternal_v0_24__pxrReserved__::ArchRegex, std::allocator<pxrInternal_v0_24__pxrReserved__::ArchRegex>>::_Vector_impl" = type { %"struct.std::_Vector_base<pxrInternal_v0_24__pxrReserved__::ArchRegex, std::allocator<pxrInternal_v0_24__pxrReserved__::ArchRegex>>::_Vector_impl_data" }
%"struct.std::_Vector_base<pxrInternal_v0_24__pxrReserved__::ArchRegex, std::allocator<pxrInternal_v0_24__pxrReserved__::ArchRegex>>::_Vector_impl_data" = type { ptr, ptr, ptr }
%"class.std::vector.77" = type { %"struct.std::_Vector_base.78" }
%"struct.std::_Vector_base.78" = type { %"struct.std::_Vector_base<pxrInternal_v0_24__pxrReserved__::SdfPredicateProgram<const pxrInternal_v0_24__pxrReserved__::HdSceneIndexPrim &>, std::allocator<pxrInternal_v0_24__pxrReserved__::SdfPredicateProgram<const pxrInternal_v0_24__pxrReserved__::HdSceneIndexPrim &>>>::_Vector_impl" }
%"struct.std::_Vector_base<pxrInternal_v0_24__pxrReserved__::SdfPredicateProgram<const pxrInternal_v0_24__pxrReserved__::HdSceneIndexPrim &>, std::allocator<pxrInternal_v0_24__pxrReserved__::SdfPredicateProgram<const pxrInternal_v0_24__pxrReserved__::HdSceneIndexPrim &>>>::_Vector_impl" = type { %"struct.std::_Vector_base<pxrInternal_v0_24__pxrReserved__::SdfPredicateProgram<const pxrInternal_v0_24__pxrReserved__::HdSceneIndexPrim &>, std::allocator<pxrInternal_v0_24__pxrReserved__::SdfPredicateProgram<const pxrInternal_v0_24__pxrReserved__::HdSceneIndexPrim &>>>::_Vector_impl_data" }
%"struct.std::_Vector_base<pxrInternal_v0_24__pxrReserved__::SdfPredicateProgram<const pxrInternal_v0_24__pxrReserved__::HdSceneIndexPrim &>, std::allocator<pxrInternal_v0_24__pxrReserved__::SdfPredicateProgram<const pxrInternal_v0_24__pxrReserved__::HdSceneIndexPrim &>>>::_Vector_impl_data" = type { ptr, ptr, ptr }
%"class.pxrInternal_v0_24__pxrReserved__::SdfPredicateProgram" = type { %"class.std::vector.95", %"class.std::vector.100" }
%"class.std::vector.95" = type { %"struct.std::_Vector_base.96" }
%"struct.std::_Vector_base.96" = type { %"struct.std::_Vector_base<pxrInternal_v0_24__pxrReserved__::SdfPredicateProgram<const pxrInternal_v0_24__pxrReserved__::HdSceneIndexPrim &>::_Op, std::allocator<pxrInternal_v0_24__pxrReserved__::SdfPredicateProgram<const pxrInternal_v0_24__pxrReserved__::HdSceneIndexPrim &>::_Op>>::_Vector_impl" }
%"struct.std::_Vector_base<pxrInternal_v0_24__pxrReserved__::SdfPredicateProgram<const pxrInternal_v0_24__pxrReserved__::HdSceneIndexPrim &>::_Op, std::allocator<pxrInternal_v0_24__pxrReserved__::SdfPredicateProgram<const pxrInternal_v0_24__pxrReserved__::HdSceneIndexPrim &>::_Op>>::_Vector_impl" = type { %"struct.std::_Vector_base<pxrInternal_v0_24__pxrReserved__::SdfPredicateProgram<const pxrInternal_v0_24__pxrReserved__::HdSceneIndexPrim &>::_Op, std::allocator<pxrInternal_v0_24__pxrReserved__::SdfPredicateProgram<const pxrInternal_v0_24__pxrReserved__::HdSceneIndexPrim &>::_Op>>::_Vector_impl_data" }
%"struct.std::_Vector_base<pxrInternal_v0_24__pxrReserved__::SdfPredicateProgram<const pxrInternal_v0_24__pxrReserved__::HdSceneIndexPrim &>::_Op, std::allocator<pxrInternal_v0_24__pxrReserved__::SdfPredicateProgram<const pxrInternal_v0_24__pxrReserved__::HdSceneIndexPrim &>::_Op>>::_Vector_impl_data" = type { ptr, ptr, ptr }
%"class.std::vector.100" = type { %"struct.std::_Vector_base.101" }
%"struct.std::_Vector_base.101" = type { %"struct.std::_Vector_base<std::function<pxrInternal_v0_24__pxrReserved__::SdfPredicateFunctionResult (const pxrInternal_v0_24__pxrReserved__::HdSceneIndexPrim &)>, std::allocator<std::function<pxrInternal_v0_24__pxrReserved__::SdfPredicateFunctionResult (const pxrInternal_v0_24__pxrReserved__::HdSceneIndexPrim &)>>>::_Vector_impl" }
%"struct.std::_Vector_base<std::function<pxrInternal_v0_24__pxrReserved__::SdfPredicateFunctionResult (const pxrInternal_v0_24__pxrReserved__::HdSceneIndexPrim &)>, std::allocator<std::function<pxrInternal_v0_24__pxrReserved__::SdfPredicateFunctionResult (const pxrInternal_v0_24__pxrReserved__::HdSceneIndexPrim &)>>>::_Vector_impl" = type { %"struct.std::_Vector_base<std::function<pxrInternal_v0_24__pxrReserved__::SdfPredicateFunctionResult (const pxrInternal_v0_24__pxrReserved__::HdSceneIndexPrim &)>, std::allocator<std::function<pxrInternal_v0_24__pxrReserved__::SdfPredicateFunctionResult (const pxrInternal_v0_24__pxrReserved__::HdSceneIndexPrim &)>>>::_Vector_impl_data" }
%"struct.std::_Vector_base<std::function<pxrInternal_v0_24__pxrReserved__::SdfPredicateFunctionResult (const pxrInternal_v0_24__pxrReserved__::HdSceneIndexPrim &)>, std::allocator<std::function<pxrInternal_v0_24__pxrReserved__::SdfPredicateFunctionResult (const pxrInternal_v0_24__pxrReserved__::HdSceneIndexPrim &)>>>::_Vector_impl_data" = type { ptr, ptr, ptr }
%"class.std::__shared_count" = type { ptr }
%class.anon.162 = type { ptr, ptr }
%"struct.pxrInternal_v0_24__pxrReserved__::HdSceneIndexPrim" = type { %"class.pxrInternal_v0_24__pxrReserved__::TfToken", %"class.std::shared_ptr.164" }
%"class.pxrInternal_v0_24__pxrReserved__::TfToken" = type { %"class.pxrInternal_v0_24__pxrReserved__::TfPointerAndBits" }
%"class.pxrInternal_v0_24__pxrReserved__::TfPointerAndBits" = type { ptr }
%"class.std::shared_ptr.164" = type { %"class.std::__shared_ptr.165" }
%"class.std::__shared_ptr.165" = type { ptr, %"class.std::__shared_count" }

; Function Attrs: mustprogress uwtable
define internal void @"_ZZNK32pxrInternal_v0_24__pxrReserved__31HdCollectionExpressionEvaluator5MatchERKNS_7SdfPathEENK3$_0clES3_"(ptr dead_on_unwind noalias writable sret(%"struct.pxrInternal_v0_24__pxrReserved__::HdSceneIndexPrim") align 8 %0, ptr noundef nonnull align 8 dereferenceable(8) %1, ptr noundef nonnull align 4 dereferenceable(8) %2) #0 align 2 {
  %4 = alloca ptr, align 8
  %5 = alloca ptr, align 8
  %6 = alloca ptr, align 8
  store ptr %0, ptr %4, align 8
  store ptr %1, ptr %5, align 8
  store ptr %2, ptr %6, align 8
  %7 = load ptr, ptr %5, align 8
  %8 = getelementptr inbounds nuw %class.anon, ptr %7, i32 0, i32 0
  %9 = load ptr, ptr %8, align 8
  %10 = load ptr, ptr %6, align 8
  %11 = load ptr, ptr %9, align 8
  %12 = getelementptr inbounds ptr, ptr %11, i64 2
  %13 = load ptr, ptr %12, align 8
  call void %13(ptr dead_on_unwind writable sret(%"struct.pxrInternal_v0_24__pxrReserved__::HdSceneIndexPrim") align 8 %0, ptr noundef nonnull align 8 dereferenceable(120) %9, ptr noundef nonnull align 4 dereferenceable(8) %10)
  ret void
}

; Function Attrs: mustprogress nounwind uwtable
define linkonce_odr noundef nonnull align 8 dereferenceable(48) ptr @_ZNKSt6vectorIN32pxrInternal_v0_24__pxrReserved__19SdfPredicateProgramIRKNS0_16HdSceneIndexPrimEEESaIS5_EEixEm(ptr noundef nonnull align 8 dereferenceable(24) %0, i64 noundef %1) #2 comdat align 2 {
  %3 = alloca ptr, align 8
  %4 = alloca i64, align 8
  store ptr %0, ptr %3, align 8
  store i64 %1, ptr %4, align 8
  %5 = load ptr, ptr %3, align 8
  %6 = getelementptr inbounds nuw %"struct.std::_Vector_base.78", ptr %5, i32 0, i32 0
  %7 = getelementptr inbounds nuw %"struct.std::_Vector_base<pxrInternal_v0_24__pxrReserved__::SdfPredicateProgram<const pxrInternal_v0_24__pxrReserved__::HdSceneIndexPrim &>, std::allocator<pxrInternal_v0_24__pxrReserved__::SdfPredicateProgram<const pxrInternal_v0_24__pxrReserved__::HdSceneIndexPrim &>>>::_Vector_impl_data", ptr %6, i32 0, i32 0
  %8 = load ptr, ptr %7, align 8
  %9 = load i64, ptr %4, align 8
  %10 = getelementptr inbounds %"class.pxrInternal_v0_24__pxrReserved__::SdfPredicateProgram", ptr %8, i64 %9
  ret ptr %10
}

; Function Attrs: mustprogress uwtable
define internal i64 @"_ZZNK32pxrInternal_v0_24__pxrReserved__21SdfPathExpressionEvalIRKNS_16HdSceneIndexPrimEE12_PatternImpl5MatchIZNKS_31HdCollectionExpressionEvaluator5MatchERKNS_7SdfPathEE3$_0EENS_26SdfPredicateFunctionResultESA_RKT_ENKUliSA_E_clEiSA_"(ptr noundef nonnull align 8 dereferenceable(16) %0, i32 noundef %1, ptr noundef nonnull align 4 dereferenceable(8) %2) #0 align 2 personality ptr @__gxx_personality_v0 {
  %4 = alloca %"class.pxrInternal_v0_24__pxrReserved__::SdfPredicateFunctionResult", align 4
  %5 = alloca ptr, align 8
  %6 = alloca i32, align 4
  %7 = alloca ptr, align 8
  %8 = alloca %"struct.pxrInternal_v0_24__pxrReserved__::HdSceneIndexPrim", align 8
  %9 = alloca ptr, align 8
  %10 = alloca i32, align 4
  store ptr %0, ptr %5, align 8
  store i32 %1, ptr %6, align 4
  store ptr %2, ptr %7, align 8
  %11 = load ptr, ptr %5, align 8
  %12 = getelementptr inbounds nuw %class.anon.162, ptr %11, i32 0, i32 0
  %13 = load ptr, ptr %12, align 8
  %14 = getelementptr inbounds nuw %"class.pxrInternal_v0_24__pxrReserved__::SdfPathExpressionEval<const pxrInternal_v0_24__pxrReserved__::HdSceneIndexPrim &>::_PatternImpl", ptr %13, i32 0, i32 1
  %15 = load i32, ptr %6, align 4
  %16 = sext i32 %15 to i64
  %17 = call noundef nonnull align 8 dereferenceable(48) ptr @_ZNKSt6vectorIN32pxrInternal_v0_24__pxrReserved__19SdfPredicateProgramIRKNS0_16HdSceneIndexPrimEEESaIS5_EEixEm(ptr noundef nonnull align 8 dereferenceable(24) %14, i64 noundef %16) #11
  %18 = getelementptr inbounds nuw %class.anon.162, ptr %11, i32 0, i32 1
  %19 = load ptr, ptr %18, align 8
  %20 = load ptr, ptr %7, align 8
  call void @"_ZZNK32pxrInternal_v0_24__pxrReserved__31HdCollectionExpressionEvaluator5MatchERKNS_7SdfPathEENK3$_0clES3_"(ptr dead_on_unwind writable sret(%"struct.pxrInternal_v0_24__pxrReserved__::HdSceneIndexPrim") align 8 %8, ptr noundef nonnull align 8 dereferenceable(8) %19, ptr noundef nonnull align 4 dereferenceable(8) %20)
  %21 = invoke i64 @_ZNK32pxrInternal_v0_24__pxrReserved__19SdfPredicateProgramIRKNS_16HdSceneIndexPrimEEclES3_(ptr noundef nonnull align 8 dereferenceable(48) %17, ptr noundef nonnull align 8 dereferenceable(24) %8)
          to label %22 unwind label %24

22:                                               ; preds = %3
  store i64 %21, ptr %4, align 4
  call void @_ZN32pxrInternal_v0_24__pxrReserved__16HdSceneIndexPrimD2Ev(ptr noundef nonnull align 8 dereferenceable(24) %8) #11
  %23 = load i64, ptr %4, align 4
  ret i64 %23

24:                                               ; preds = %3
  %25 = landingpad { ptr, i32 }
          cleanup
  %26 = extractvalue { ptr, i32 } %25, 0
  store ptr %26, ptr %9, align 8
  %27 = extractvalue { ptr, i32 } %25, 1
  store i32 %27, ptr %10, align 4
  call void @_ZN32pxrInternal_v0_24__pxrReserved__16HdSceneIndexPrimD2Ev(ptr noundef nonnull align 8 dereferenceable(24) %8) #11
  br label %28

28:                                               ; preds = %24
  %29 = load ptr, ptr %9, align 8
  %30 = load i32, ptr %10, align 4
  %31 = insertvalue { ptr, i32 } poison, ptr %29, 0
  %32 = insertvalue { ptr, i32 } %31, i32 %30, 1
  resume { ptr, i32 } %32
}

; Function Attrs: mustprogress uwtable
define internal i64 @"_ZN32pxrInternal_v0_24__pxrReserved__13TfFunctionRefIFNS_26SdfPredicateFunctionResultEiRKNS_7SdfPathEEE9_InvokeFnIZNKS_21SdfPathExpressionEvalIRKNS_16HdSceneIndexPrimEE12_PatternImpl5MatchIZNKS_31HdCollectionExpressionEvaluator5MatchES4_E3$_0EES1_S4_RKT_EUliS4_E_EES1_PKviS4_"(ptr noundef %0, i32 noundef %1, ptr noundef nonnull align 4 dereferenceable(8) %2) #0 align 2 {
  %4 = alloca %"class.pxrInternal_v0_24__pxrReserved__::SdfPredicateFunctionResult", align 4
  %5 = alloca ptr, align 8
  %6 = alloca i32, align 4
  %7 = alloca ptr, align 8
  store ptr %0, ptr %5, align 8
  store i32 %1, ptr %6, align 4
  store ptr %2, ptr %7, align 8
  %8 = load ptr, ptr %5, align 8
  %9 = load i32, ptr %6, align 4
  %10 = load ptr, ptr %7, align 8
  %11 = call i64 @"_ZZNK32pxrInternal_v0_24__pxrReserved__21SdfPathExpressionEvalIRKNS_16HdSceneIndexPrimEE12_PatternImpl5MatchIZNKS_31HdCollectionExpressionEvaluator5MatchERKNS_7SdfPathEE3$_0EENS_26SdfPredicateFunctionResultESA_RKT_ENKUliSA_E_clEiSA_"(ptr noundef nonnull align 8 dereferenceable(16) %8, i32 noundef %9, ptr noundef nonnull align 4 dereferenceable(8) %10)
  store i64 %11, ptr %4, align 4
  %12 = load i64, ptr %4, align 4
  ret i64 %12
}