; Function Attrs: mustprogress uwtable
define internal i64 @"_ZN32pxrInternal_v0_24__pxrReserved__13TfFunctionRefIFNS_26SdfPredicateFunctionResultEiRKNS_7SdfPathEEE9_InvokeFnIZNKS_21SdfPathExpressionEvalIRKNS_16HdSceneIndexPrimEE12_PatternImpl5MatchIZNKS_31HdCollectionExpressionEvaluator5MatchES4_E3$_0EES1_S4_RKT_EUliS4_E_EES1_PKviS4_"(ptr nocapture noundef readonly %0, i32 noundef %1, ptr noundef nonnull align 4 dereferenceable(8) %2) #0 align 2 personality ptr @__gxx_personality_v0 {
  %4 = alloca %"struct.pxrInternal_v0_24__pxrReserved__::HdSceneIndexPrim", align 8
  %.val = load ptr, ptr %0, align 8
  %5 = getelementptr i8, ptr %0, i64 8
  %.val2 = load ptr, ptr %5, align 8
  %6 = getelementptr i8, ptr %.val, i64 112
  %.val.val = load ptr, ptr %6, align 8
  %.val2.val = load ptr, ptr %.val2, align 8
  call void @llvm.lifetime.start.p0(i64 24, ptr nonnull %4)
  %7 = sext i32 %1 to i64
  %8 = getelementptr inbounds %"class.pxrInternal_v0_24__pxrReserved__::SdfPredicateProgram", ptr %.val.val, i64 %7
  %9 = load ptr, ptr %.val2.val, align 8, !noalias !76
  %10 = getelementptr inbounds i8, ptr %9, i64 16
  %11 = load ptr, ptr %10, align 8, !noalias !76
  call void %11(ptr dead_on_unwind nonnull writable sret(%"struct.pxrInternal_v0_24__pxrReserved__::HdSceneIndexPrim") align 8 %4, ptr noundef nonnull align 8 dereferenceable(120) %.val2.val, ptr noundef nonnull align 4 dereferenceable(8) %2)
  %12 = invoke i64 @_ZNK32pxrInternal_v0_24__pxrReserved__19SdfPredicateProgramIRKNS_16HdSceneIndexPrimEEclES3_(ptr noundef nonnull align 8 dereferenceable(48) %8, ptr noundef nonnull align 8 dereferenceable(24) %4)
          to label %13 unwind label %57

13:                                               ; preds = %3
  %14 = getelementptr inbounds i8, ptr %4, i64 16
  %15 = load ptr, ptr %14, align 8
  %.not.i.i.i.i.i = icmp eq ptr %15, null
  br i1 %.not.i.i.i.i.i, label %_ZNSt10shared_ptrIN32pxrInternal_v0_24__pxrReserved__21HdContainerDataSourceEED2Ev.exit.i.i, label %16

16:                                               ; preds = %13
  %17 = getelementptr inbounds nuw i8, ptr %15, i64 8
  %18 = load atomic i64, ptr %17 acquire, align 8
  %19 = icmp eq i64 %18, 4294967297
  %20 = trunc i64 %18 to i32
  br i1 %19, label %21, label %26

21:                                               ; preds = %16
  store i32 0, ptr %17, align 8
  %22 = getelementptr inbounds nuw i8, ptr %15, i64 12
  store i32 0, ptr %22, align 4
  %23 = load ptr, ptr %15, align 8
  %24 = getelementptr inbounds i8, ptr %23, i64 16
  %25 = load ptr, ptr %24, align 8
  call void %25(ptr noundef nonnull align 8 dereferenceable(16) %15) #16
  br label %_ZNSt16_Sp_counted_baseILN9__gnu_cxx12_Lock_policyE2EE24_M_release_last_use_coldEv.exit.sink.split.i.i.i.i.i.i

26:                                               ; preds = %16
  %27 = load i8, ptr @__libc_single_threaded, align 1
  %.not.i.i.i.i.i.i = icmp eq i8 %27, 0
  br i1 %.not.i.i.i.i.i.i, label %30, label %28

28:                                               ; preds = %26
  %29 = add nsw i32 %20, -1
  store i32 %29, ptr %17, align 4
  br label %32

30:                                               ; preds = %26
  %31 = atomicrmw volatile add ptr %17, i32 -1 acq_rel, align 4
  br label %32

32:                                               ; preds = %30, %28
  %.0.i.i.i.i.i.i = phi i32 [ %20, %28 ], [ %31, %30 ]
  %33 = icmp eq i32 %.0.i.i.i.i.i.i, 1
  br i1 %33, label %34, label %_ZNSt10shared_ptrIN32pxrInternal_v0_24__pxrReserved__21HdContainerDataSourceEED2Ev.exit.i.i

34:                                               ; preds = %32
  %35 = load ptr, ptr %15, align 8
  %36 = getelementptr inbounds i8, ptr %35, i64 16
  %37 = load ptr, ptr %36, align 8
  call void %37(ptr noundef nonnull align 8 dereferenceable(16) %15) #16
  %38 = getelementptr inbounds nuw i8, ptr %15, i64 12
  %39 = load i8, ptr @__libc_single_threaded, align 1
  %.not.i.i.i.i.i.i.i.i = icmp eq i8 %39, 0
  br i1 %.not.i.i.i.i.i.i.i.i, label %43, label %40

40:                                               ; preds = %34
  %41 = load i32, ptr %38, align 4
  %42 = add nsw i32 %41, -1
  store i32 %42, ptr %38, align 4
  br label %45

43:                                               ; preds = %34
  %44 = atomicrmw volatile add ptr %38, i32 -1 acq_rel, align 4
  br label %45

45:                                               ; preds = %43, %40
  %.0.i.i.i.i.i.i.i.i = phi i32 [ %41, %40 ], [ %44, %43 ]
  %46 = icmp eq i32 %.0.i.i.i.i.i.i.i.i, 1
  br i1 %46, label %_ZNSt16_Sp_counted_baseILN9__gnu_cxx12_Lock_policyE2EE24_M_release_last_use_coldEv.exit.sink.split.i.i.i.i.i.i, label %_ZNSt10shared_ptrIN32pxrInternal_v0_24__pxrReserved__21HdContainerDataSourceEED2Ev.exit.i.i

_ZNSt16_Sp_counted_baseILN9__gnu_cxx12_Lock_policyE2EE24_M_release_last_use_coldEv.exit.sink.split.i.i.i.i.i.i: ; preds = %45, %21
  %47 = load ptr, ptr %15, align 8
  %48 = getelementptr inbounds i8, ptr %47, i64 24
  %49 = load ptr, ptr %48, align 8
  call void %49(ptr noundef nonnull align 8 dereferenceable(16) %15) #16
  br label %_ZNSt10shared_ptrIN32pxrInternal_v0_24__pxrReserved__21HdContainerDataSourceEED2Ev.exit.i.i

_ZNSt10shared_ptrIN32pxrInternal_v0_24__pxrReserved__21HdContainerDataSourceEED2Ev.exit.i.i: ; preds = %_ZNSt16_Sp_counted_baseILN9__gnu_cxx12_Lock_policyE2EE24_M_release_last_use_coldEv.exit.sink.split.i.i.i.i.i.i, %45, %32, %13
  %50 = load ptr, ptr %4, align 8
  %51 = ptrtoint ptr %50 to i64
  %52 = and i64 %51, 7
  %.not.i.i.i.i = icmp eq i64 %52, 0
  br i1 %.not.i.i.i.i, label %"_ZZNK32pxrInternal_v0_24__pxrReserved__21SdfPathExpressionEvalIRKNS_16HdSceneIndexPrimEE12_PatternImpl5MatchIZNKS_31HdCollectionExpressionEvaluator5MatchERKNS_7SdfPathEE3$_0EENS_26SdfPredicateFunctionResultESA_RKT_ENKUliSA_E_clEiSA_.exit", label %53

53:                                               ; preds = %_ZNSt10shared_ptrIN32pxrInternal_v0_24__pxrReserved__21HdContainerDataSourceEED2Ev.exit.i.i
  %54 = and i64 %51, -8
  %55 = inttoptr i64 %54 to ptr
  %56 = atomicrmw sub ptr %55, i32 2 release, align 4
  br label %"_ZZNK32pxrInternal_v0_24__pxrReserved__21SdfPathExpressionEvalIRKNS_16HdSceneIndexPrimEE12_PatternImpl5MatchIZNKS_31HdCollectionExpressionEvaluator5MatchERKNS_7SdfPathEE3$_0EENS_26SdfPredicateFunctionResultESA_RKT_ENKUliSA_E_clEiSA_.exit"

57:                                               ; preds = %3
  %58 = landingpad { ptr, i32 }
          cleanup
  call void @_ZN32pxrInternal_v0_24__pxrReserved__16HdSceneIndexPrimD2Ev(ptr noundef nonnull align 8 dereferenceable(24) %4) #16
  resume { ptr, i32 } %58

"_ZZNK32pxrInternal_v0_24__pxrReserved__21SdfPathExpressionEvalIRKNS_16HdSceneIndexPrimEE12_PatternImpl5MatchIZNKS_31HdCollectionExpressionEvaluator5MatchERKNS_7SdfPathEE3$_0EENS_26SdfPredicateFunctionResultESA_RKT_ENKUliSA_E_clEiSA_.exit": ; preds = %_ZNSt10shared_ptrIN32pxrInternal_v0_24__pxrReserved__21HdContainerDataSourceEED2Ev.exit.i.i, %53
  call void @llvm.lifetime.end.p0(i64 24, ptr nonnull %4)
  ret i64 %12
}